target datalayout = "e-m:e-p270:32:32-p271:32:32-p272:64:64-i64:64-i128:128-f80:128-n8:16:32:64-S128"
target triple = "x86_64-pc-linux-gnu"

%struct.dt_action_def_t = type { ptr, ptr, ptr, ptr, i32 }
%struct.darktable_t = type { %struct.dt_codepath_t, i32, i32, ptr, ptr, ptr, ptr, ptr, ptr, ptr, ptr, ptr, ptr, ptr, ptr, ptr, ptr, ptr, ptr, ptr, ptr, ptr, ptr, ptr, ptr, ptr, ptr, ptr, ptr, ptr, [64 x %struct.dt_pthread_mutex_t], %struct.dt_pthread_mutex_t, %struct.dt_pthread_mutex_t, %struct.dt_pthread_mutex_t, %struct.dt_pthread_mutex_t, %struct.dt_pthread_mutex_t, ptr, ptr, ptr, ptr, ptr, ptr, ptr, ptr, ptr, ptr, ptr, ptr, ptr, %struct.dt_lua_state_t, ptr, double, ptr, i32, [47 x i32], i32, i32, ptr, ptr, %struct.dt_sys_resources_t, %struct.dt_backthumb_t, %struct.dt_gimp_t }
%struct.dt_codepath_t = type { i8, [3 x i8] }
%struct.dt_pthread_mutex_t = type { %union.pthread_mutex_t }
%union.pthread_mutex_t = type { %struct.__pthread_mutex_s }
%struct.__pthread_mutex_s = type { i32, i32, i32, i32, i32, i16, i16, %struct.__pthread_internal_list }
%struct.__pthread_internal_list = type { ptr, ptr }
%struct.dt_lua_state_t = type { i32 }
%struct.dt_sys_resources_t = type { i64, i64, ptr, ptr, i32 }
%struct.dt_backthumb_t = type { double, double, i32, i32, i32, i32 }
%struct.dt_gimp_t = type { i32, ptr, ptr, i32, i32 }
%struct.dt_action_t = type { i32, ptr, ptr, ptr, ptr, ptr }
%struct._GTypeInstance = type { ptr }
%struct._GTypeClass = type { i64 }
%struct.dt_control_t = type { i32, ptr, %struct.dt_action_t, %struct.dt_action_t, %struct.dt_action_t, %struct.dt_action_t, %struct.dt_action_t, %struct.dt_action_t, %struct.dt_action_t, %struct.dt_action_t, %struct.dt_action_t, %struct.dt_action_t, %struct.dt_action_t, ptr, ptr, ptr, i32, ptr, i32, i32, ptr, ptr, [256 x i8], i32, double, i32, i32, i64, i32, i32, i32, double, double, i32, i32, i32, i32, i32, i32, [8 x [1000 x i8]], i32, i32, %struct.dt_pthread_mutex_t, i32, i32, [2 x [300 x i8]], i32, i32, %struct.dt_pthread_mutex_t, %struct.dt_pthread_mutex_t, %struct.dt_pthread_mutex_t, double, i32, i32, i32, %struct.dt_pthread_mutex_t, %struct.dt_pthread_mutex_t, %union.pthread_cond_t, i32, ptr, i64, i64, ptr, [5 x ptr], [5 x i64], %struct.dt_pthread_mutex_t, [3 x ptr], [3 x i8], [3 x i64], %struct.anon.3, %struct.anon.5 }
%union.pthread_cond_t = type { %struct.__pthread_cond_s }
%struct.__pthread_cond_s = type { %union.__atomic_wide_counter, %union.__atomic_wide_counter, [2 x i32], [2 x i32], i32, i32, [2 x i32] }
%union.__atomic_wide_counter = type { i64 }
%struct.anon.3 = type { ptr, i64, i64, double, %struct.dt_pthread_mutex_t, %struct.anon.4 }
%struct.anon.4 = type { ptr, ptr, ptr, ptr, ptr, ptr }
%struct.anon.5 = type { %struct.anon.6 }
%struct.anon.6 = type { ptr, ptr }

@.str.13 = private unnamed_addr constant [8 x i8] c"clicked\00", align 1
@dt_action_def_button = external constant %struct.dt_action_def_t, align 8
@darktable = external global %struct.darktable_t, align 8

; Function Attrs: nounwind uwtable
define ptr @dt_iop_button_new(ptr noundef %0, ptr noundef %1, ptr noundef %2, i32 noundef %3, i32 noundef %4, i32 noundef %5, ptr noundef %6, i32 noundef %7, ptr noundef %8) #0 {
  %10 = alloca ptr, align 8
  %11 = alloca ptr, align 8
  %12 = alloca ptr, align 8
  %13 = alloca i32, align 4
  %14 = alloca i32, align 4
  %15 = alloca i32, align 4
  %16 = alloca ptr, align 8
  %17 = alloca i32, align 4
  %18 = alloca ptr, align 8
  %19 = alloca ptr, align 8
  %20 = alloca ptr, align 8
  %21 = alloca ptr, align 8
  %22 = alloca i64, align 8
  %23 = alloca i32, align 4
  %24 = alloca i32, align 4
  store ptr %0, ptr %10, align 8, !tbaa !6
  store ptr %1, ptr %11, align 8, !tbaa !11
  store ptr %2, ptr %12, align 8, !tbaa !30
  store i32 %3, ptr %13, align 4, !tbaa !33
  store i32 %4, ptr %14, align 4, !tbaa !33
  store i32 %5, ptr %15, align 4, !tbaa !33
  store ptr %6, ptr %16, align 8, !tbaa !30
  store i32 %7, ptr %17, align 4, !tbaa !33
  store ptr %8, ptr %18, align 8, !tbaa !41
  call void @llvm.lifetime.start.p0(i64 8, ptr %19) #9
  store ptr null, ptr %19, align 8, !tbaa !41
  %25 = load ptr, ptr %16, align 8, !tbaa !30
  %26 = icmp ne ptr %25, null
  br i1 %26, label %27, label %34

27:                                               ; preds = %9
  %28 = load ptr, ptr %16, align 8, !tbaa !30
  %29 = load i32, ptr %17, align 4, !tbaa !33
  %30 = call ptr @dtgtk_button_new(ptr noundef %28, i32 noundef %29, ptr noundef null)
  store ptr %30, ptr %19, align 8, !tbaa !41
  %31 = load ptr, ptr %19, align 8, !tbaa !41
  %32 = load ptr, ptr %11, align 8, !tbaa !11
  %33 = call ptr @g_dpgettext(ptr noundef null, ptr noundef %32, i64 noundef 0)
  call void @gtk_widget_set_tooltip_text(ptr noundef %31, ptr noundef %33)
  br label %44

34:                                               ; preds = %9
  %35 = load ptr, ptr %11, align 8, !tbaa !11
  %36 = call ptr @g_dpgettext(ptr noundef null, ptr noundef %35, i64 noundef 0)
  %37 = call ptr @gtk_button_new_with_label(ptr noundef %36)
  store ptr %37, ptr %19, align 8, !tbaa !41
  %38 = load ptr, ptr %19, align 8, !tbaa !41
  %39 = call i64 @gtk_bin_get_type() #12
  %40 = call ptr @g_type_check_instance_cast(ptr noundef %38, i64 noundef %39)
  %41 = call ptr @gtk_bin_get_child(ptr noundef %40)
  %42 = call i64 @gtk_label_get_type() #12
  %43 = call ptr @g_type_check_instance_cast(ptr noundef %41, i64 noundef %42)
  call void @gtk_label_set_ellipsize(ptr noundef %43, i32 noundef 3)
  br label %44

44:                                               ; preds = %34, %27
  %45 = load ptr, ptr %19, align 8, !tbaa !41
  %46 = call ptr @g_type_check_instance_cast(ptr noundef %45, i64 noundef 80)
  %47 = load ptr, ptr %12, align 8, !tbaa !30
  %48 = load ptr, ptr %10, align 8, !tbaa !6
  %49 = call i64 @g_signal_connect_data(ptr noundef %46, ptr noundef @.str.13, ptr noundef %47, ptr noundef %48, ptr noundef null, i32 noundef 0)
  call void @llvm.lifetime.start.p0(i64 8, ptr %20) #9
  %50 = load ptr, ptr %10, align 8, !tbaa !6
  %51 = load ptr, ptr %11, align 8, !tbaa !11
  %52 = load ptr, ptr %19, align 8, !tbaa !41
  %53 = call ptr @dt_action_define_iop(ptr noundef %50, ptr noundef null, ptr noundef %51, ptr noundef %52, ptr noundef @dt_action_def_button)
  store ptr %53, ptr %20, align 8, !tbaa !60
  %54 = load ptr, ptr getelementptr inbounds nuw (%struct.darktable_t, ptr @darktable, i32 0, i32 12), align 8, !tbaa !114
  %55 = getelementptr inbounds nuw %struct.dt_control_t, ptr %54, i32 0, i32 0
  %56 = load i32, ptr %55, align 8, !tbaa !115
  %57 = icmp ne i32 %56, 0
  br i1 %57, label %58, label %62

58:                                               ; preds = %44
  %59 = load ptr, ptr %20, align 8, !tbaa !60
  %60 = load i32, ptr %14, align 4, !tbaa !33
  %61 = load i32, ptr %15, align 4, !tbaa !33
  call void @dt_shortcut_register(ptr noundef %59, i32 noundef 0, i32 noundef 0, i32 noundef %60, i32 noundef %61)
  br label %62

62:                                               ; preds = %58, %44
  call void @llvm.lifetime.start.p0(i64 8, ptr %21) #9
  %63 = load ptr, ptr %18, align 8, !tbaa !41
  store ptr %63, ptr %21, align 8, !tbaa !107
  call void @llvm.lifetime.start.p0(i64 8, ptr %22) #9
  %64 = call i64 @gtk_box_get_type() #12
  store i64 %64, ptr %22, align 8, !tbaa !32
  call void @llvm.lifetime.start.p0(i64 4, ptr %23) #9
  %65 = load ptr, ptr %21, align 8, !tbaa !107
  %66 = icmp ne ptr %65, null
  br i1 %66, label %68, label %67

67:                                               ; preds = %62
  store i32 0, ptr %23, align 4, !tbaa !33
  br label %87

68:                                               ; preds = %62
  %69 = load ptr, ptr %21, align 8, !tbaa !107
  %70 = getelementptr inbounds nuw %struct._GTypeInstance, ptr %69, i32 0, i32 0
  %71 = load ptr, ptr %70, align 8, !tbaa !109
  %72 = icmp ne ptr %71, null
  br i1 %72, label %73, label %82

73:                                               ; preds = %68
  %74 = load ptr, ptr %21, align 8, !tbaa !107
  %75 = getelementptr inbounds nuw %struct._GTypeInstance, ptr %74, i32 0, i32 0
  %76 = load ptr, ptr %75, align 8, !tbaa !109
  %77 = getelementptr inbounds nuw %struct._GTypeClass, ptr %76, i32 0, i32 0
  %78 = load i64, ptr %77, align 8, !tbaa !112
  %79 = load i64, ptr %22, align 8, !tbaa !32
  %80 = icmp eq i64 %78, %79
  br i1 %80, label %81, label %82

81:                                               ; preds = %73
  store i32 1, ptr %23, align 4, !tbaa !33
  br label %86

82:                                               ; preds = %73, %68
  %83 = load ptr, ptr %21, align 8, !tbaa !107
  %84 = load i64, ptr %22, align 8, !tbaa !32
  %85 = call i32 @g_type_check_instance_is_a(ptr noundef %83, i64 noundef %84) #10
  store i32 %85, ptr %23, align 4, !tbaa !33
  br label %86

86:                                               ; preds = %82, %81
  br label %87

87:                                               ; preds = %86, %67
  %88 = load i32, ptr %23, align 4, !tbaa !33
  store i32 %88, ptr %24, align 4, !tbaa !33
  call void @llvm.lifetime.end.p0(i64 4, ptr %23) #9
  call void @llvm.lifetime.end.p0(i64 8, ptr %22) #9
  call void @llvm.lifetime.end.p0(i64 8, ptr %21) #9
  %89 = load i32, ptr %24, align 4, !tbaa !33
  %90 = icmp ne i32 %89, 0
  br i1 %90, label %91, label %96

91:                                               ; preds = %87
  %92 = load ptr, ptr %18, align 8, !tbaa !41
  %93 = call i64 @gtk_box_get_type() #12
  %94 = call ptr @g_type_check_instance_cast(ptr noundef %92, i64 noundef %93)
  %95 = load ptr, ptr %19, align 8, !tbaa !41
  call void @gtk_box_pack_start(ptr noundef %94, ptr noundef %95, i32 noundef 1, i32 noundef 1, i32 noundef 0)
  br label %96

96:                                               ; preds = %91, %87
  %97 = load ptr, ptr %19, align 8, !tbaa !41
  call void @llvm.lifetime.end.p0(i64 8, ptr %20) #9
  call void @llvm.lifetime.end.p0(i64 8, ptr %19) #9
  ret ptr %97
}