; Function Attrs: nounwind uwtable
define noundef ptr @dt_iop_button_new(ptr noundef %0, ptr noundef %1, ptr noundef %2, i32 noundef %3, i32 noundef %4, i32 noundef %5, ptr noundef %6, i32 noundef %7, ptr noundef %8) local_unnamed_addr #0 {
  %.not = icmp eq ptr %6, null
  br i1 %.not, label %13, label %10

10:                                               ; preds = %9
  %11 = tail call ptr @dtgtk_button_new(ptr noundef nonnull %6, i32 noundef %7, ptr noundef null) #11
  %12 = tail call ptr @g_dpgettext(ptr noundef null, ptr noundef %1, i64 noundef 0) #11
  tail call void @gtk_widget_set_tooltip_text(ptr noundef %11, ptr noundef %12) #11
  br label %21

13:                                               ; preds = %9
  %14 = tail call ptr @g_dpgettext(ptr noundef null, ptr noundef %1, i64 noundef 0) #11
  %15 = tail call ptr @gtk_button_new_with_label(ptr noundef %14) #11
  %16 = tail call i64 @gtk_bin_get_type() #14
  %17 = tail call ptr @g_type_check_instance_cast(ptr noundef %15, i64 noundef %16) #11
  %18 = tail call ptr @gtk_bin_get_child(ptr noundef %17) #11
  %19 = tail call i64 @gtk_label_get_type() #14
  %20 = tail call ptr @g_type_check_instance_cast(ptr noundef %18, i64 noundef %19) #11
  tail call void @gtk_label_set_ellipsize(ptr noundef %20, i32 noundef 3) #11
  br label %21

21:                                               ; preds = %13, %10
  %.0 = phi ptr [ %11, %10 ], [ %15, %13 ]
  %22 = tail call ptr @g_type_check_instance_cast(ptr noundef %.0, i64 noundef 80) #11
  %23 = tail call i64 @g_signal_connect_data(ptr noundef %22, ptr noundef nonnull @.str.13, ptr noundef %2, ptr noundef %0, ptr noundef null, i32 noundef 0) #11
  %24 = tail call ptr @dt_action_define_iop(ptr noundef %0, ptr noundef null, ptr noundef %1, ptr noundef %.0, ptr noundef nonnull @dt_action_def_button) #11
  %25 = load ptr, ptr getelementptr inbounds nuw (i8, ptr @darktable, i64 88), align 8, !tbaa !97
  %26 = load i32, ptr %25, align 8, !tbaa !98
  %.not31 = icmp eq i32 %26, 0
  br i1 %.not31, label %28, label %27

27:                                               ; preds = %21
  tail call void @dt_shortcut_register(ptr noundef %24, i32 noundef 0, i32 noundef 0, i32 noundef %4, i32 noundef %5) #11
  br label %28

28:                                               ; preds = %27, %21
  %29 = tail call i64 @gtk_box_get_type() #14
  %.not32 = icmp eq ptr %8, null
  br i1 %.not32, label %.critedge, label %30

30:                                               ; preds = %28
  %31 = load ptr, ptr %8, align 8, !tbaa !92
  %.not33 = icmp eq ptr %31, null
  br i1 %.not33, label %35, label %32

32:                                               ; preds = %30
  %33 = load i64, ptr %31, align 8, !tbaa !95
  %34 = icmp eq i64 %33, %29
  br i1 %34, label %.critedge36, label %35

35:                                               ; preds = %32, %30
  %36 = tail call i32 @g_type_check_instance_is_a(ptr noundef nonnull %8, i64 noundef %29) #12
  %37 = icmp eq i32 %36, 0
  br i1 %37, label %.critedge, label %.critedge36

.critedge36:                                      ; preds = %32, %35
  %38 = tail call ptr @g_type_check_instance_cast(ptr noundef nonnull %8, i64 noundef %29) #11
  tail call void @gtk_box_pack_start(ptr noundef %38, ptr noundef %.0, i32 noundef 1, i32 noundef 1, i32 noundef 0) #11
  br label %.critedge

.critedge:                                        ; preds = %28, %.critedge36, %35
  ret ptr %.0
}